target datalayout = "e-m:e-p270:32:32-p271:32:32-p272:64:64-i64:64-i128:128-f80:128-n8:16:32:64-S128"
target triple = "x86_64-pc-linux-gnu"

%struct.DdManager = type { %struct.DdNode, ptr, ptr, ptr, ptr, ptr, ptr, ptr, i32, i32, double, double, double, i32, i32, i32, i32, i32, i32, ptr, ptr, %struct.DdSubtable, i32, i32, i32, i32, i32, i32, i32, double, i32, i32, i32, ptr, i64, double, i32, ptr, ptr, ptr, ptr, ptr, ptr, ptr, i32, ptr, ptr, ptr, ptr, ptr, ptr, i32, i32, i32, double, i32, i32, i32, i32, double, double, i32, i32, i32, i32, i32, i32, i32, i32, i32, ptr, ptr, i32, i32, i32, i32, i32, i32, ptr, ptr, ptr, ptr, ptr, ptr, ptr, ptr, i32, i64, i64, i64, i32, i64, i64, double, double, double, double, double, double, i32, ptr, ptr, i64 }
%struct.DdNode = type { i32, i32, ptr, %union.anon, i64 }
%union.anon = type { %struct.DdChildren }
%struct.DdChildren = type { ptr, ptr }
%struct.DdSubtable = type { ptr, i32, i32, i32, i32, i32, i32, i32, i32, i32, i32, i32 }

; Function Attrs: nounwind uwtable
define i32 @Extra_bddSuppContainVar(ptr noundef %0, ptr noundef %1, ptr noundef %2) #0 {
  %4 = alloca i32, align 4
  %5 = alloca ptr, align 8
  %6 = alloca ptr, align 8
  %7 = alloca ptr, align 8
  store ptr %0, ptr %5, align 8, !tbaa !3
  store ptr %1, ptr %6, align 8, !tbaa !8
  store ptr %2, ptr %7, align 8, !tbaa !8
  br label %8

8:                                                ; preds = %24, %3
  %9 = load ptr, ptr %6, align 8, !tbaa !8
  %10 = load ptr, ptr %5, align 8, !tbaa !3
  %11 = getelementptr inbounds nuw %struct.DdManager, ptr %10, i32 0, i32 1
  %12 = load ptr, ptr %11, align 8, !tbaa !41
  %13 = icmp ne ptr %9, %12
  br i1 %13, label %14, label %29

14:                                               ; preds = %8
  %15 = load ptr, ptr %6, align 8, !tbaa !8
  %16 = getelementptr inbounds nuw %struct.DdNode, ptr %15, i32 0, i32 0
  %17 = load i32, ptr %16, align 8, !tbaa !42
  %18 = load ptr, ptr %7, align 8, !tbaa !8
  %19 = getelementptr inbounds nuw %struct.DdNode, ptr %18, i32 0, i32 0
  %20 = load i32, ptr %19, align 8, !tbaa !42
  %21 = icmp eq i32 %17, %20
  br i1 %21, label %22, label %23

22:                                               ; preds = %14
  store i32 1, ptr %4, align 4
  br label %30

23:                                               ; preds = %14
  br label %24

24:                                               ; preds = %23
  %25 = load ptr, ptr %6, align 8, !tbaa !8
  %26 = getelementptr inbounds nuw %struct.DdNode, ptr %25, i32 0, i32 3
  %27 = getelementptr inbounds nuw %struct.DdChildren, ptr %26, i32 0, i32 0
  %28 = load ptr, ptr %27, align 8, !tbaa !43
  store ptr %28, ptr %6, align 8, !tbaa !8
  br label %8, !llvm.loop !52

29:                                               ; preds = %8
  store i32 0, ptr %4, align 4
  br label %30

30:                                               ; preds = %29, %22
  %31 = load i32, ptr %4, align 4
  ret i32 %31
}