; Function Attrs: nofree norecurse nosync nounwind memory(read, inaccessiblemem: none) uwtable
define range(i32 0, 2) i32 @Extra_bddSuppContainVar(ptr noundef readonly captures(none) %0, ptr noundef readonly %1, ptr noundef readonly captures(none) %2) local_unnamed_addr #6 {
  %4 = getelementptr inbounds nuw i8, ptr %0, i64 40
  %5 = load ptr, ptr %4, align 8, !tbaa !34
  %.not6 = icmp eq ptr %1, %5
  br i1 %.not6, label %._crit_edge, label %.lr.ph

.lr.ph:                                           ; preds = %3
  %6 = load i32, ptr %2, align 8, !tbaa !35
  br label %7

7:                                                ; preds = %.lr.ph, %10
  %.057 = phi ptr [ %1, %.lr.ph ], [ %12, %10 ]
  %8 = load i32, ptr %.057, align 8, !tbaa !35
  %9 = icmp eq i32 %8, %6
  br i1 %9, label %._crit_edge, label %10

10:                                               ; preds = %7
  %11 = getelementptr inbounds nuw i8, ptr %.057, i64 16
  %12 = load ptr, ptr %11, align 8, !tbaa !36
  %.not = icmp eq ptr %12, %5
  br i1 %.not, label %._crit_edge, label %7, !llvm.loop !44

._crit_edge:                                      ; preds = %7, %10, %3
  %.0 = phi i32 [ 0, %3 ], [ 0, %10 ], [ 1, %7 ]
  ret i32 %.0
}